; Function Attrs: mustprogress nounwind uwtable
define dso_local void @_ZNK4llvm2gi18InstructionPattern17reportUnreachableENS_8ArrayRefINS_5SMLocEEE(ptr noundef nonnull align 8 dereferenceable(304) %0, ptr %1, i64 %2) local_unnamed_addr #0 align 2 {
_ZN4llvmplERKNS_5TwineES2_.exit32:
  %3 = alloca %"class.llvm::Twine", align 8
  %4 = alloca %"class.llvm::Twine", align 8
  %5 = alloca %"class.llvm::Twine", align 8
  %6 = alloca %"class.llvm::Twine", align 8
  %7 = getelementptr inbounds nuw i8, ptr %0, i64 16
  %.sroa.0.0.copyload.i = load ptr, ptr %7, align 8
  %.sroa.2.0..sroa_idx.i = getelementptr inbounds i8, ptr %0, i64 24
  %.sroa.2.0.copyload.i = load i64, ptr %.sroa.2.0..sroa_idx.i, align 8
  %8 = getelementptr inbounds nuw i8, ptr %6, i64 32
  store i8 3, ptr %8, align 8, !alias.scope !204
  %9 = getelementptr inbounds nuw i8, ptr %6, i64 33
  store i8 5, ptr %9, align 1, !alias.scope !204
  store ptr @.str.37, ptr %6, align 8, !alias.scope !204
  %10 = getelementptr inbounds nuw i8, ptr %6, i64 16
  store ptr %.sroa.0.0.copyload.i, ptr %10, align 8, !alias.scope !204
  %11 = getelementptr inbounds i8, ptr %6, i64 24
  store i64 %.sroa.2.0.copyload.i, ptr %11, align 8, !alias.scope !204
  store ptr %6, ptr %5, align 8, !alias.scope !207
  %12 = getelementptr inbounds nuw i8, ptr %5, i64 16
  store ptr @.str.38, ptr %12, align 8, !alias.scope !207
  %13 = getelementptr inbounds nuw i8, ptr %5, i64 32
  store i8 2, ptr %13, align 8, !alias.scope !207
  %14 = getelementptr inbounds nuw i8, ptr %5, i64 33
  store i8 3, ptr %14, align 1, !alias.scope !207
  %15 = load ptr, ptr %0, align 8
  %16 = getelementptr inbounds i8, ptr %15, i64 56
  %17 = load ptr, ptr %16, align 8
  %18 = call { ptr, i64 } %17(ptr noundef nonnull align 8 dereferenceable(304) %0) #25
  %19 = extractvalue { ptr, i64 } %18, 1
  %20 = extractvalue { ptr, i64 } %18, 0
  store ptr %5, ptr %4, align 8, !alias.scope !212
  %21 = getelementptr inbounds nuw i8, ptr %4, i64 16
  store ptr %20, ptr %21, align 8, !alias.scope !212
  %.sroa.2.0..sroa_idx.i.i.i16 = getelementptr inbounds i8, ptr %4, i64 24
  store i64 %19, ptr %.sroa.2.0..sroa_idx.i.i.i16, align 8, !alias.scope !212
  %22 = getelementptr inbounds nuw i8, ptr %4, i64 32
  store i8 2, ptr %22, align 8, !alias.scope !212
  %23 = getelementptr inbounds nuw i8, ptr %4, i64 33
  store i8 5, ptr %23, align 1, !alias.scope !212
  store ptr %4, ptr %3, align 8, !alias.scope !217
  %24 = getelementptr inbounds nuw i8, ptr %3, i64 16
  store ptr @.str.39, ptr %24, align 8, !alias.scope !217
  %25 = getelementptr inbounds nuw i8, ptr %3, i64 32
  store i8 2, ptr %25, align 8, !alias.scope !217
  %26 = getelementptr inbounds nuw i8, ptr %3, i64 33
  store i8 3, ptr %26, align 1, !alias.scope !217
  call void @_ZN4llvm10PrintErrorENS_8ArrayRefINS_5SMLocEEERKNS_5TwineE(ptr %1, i64 %2, ptr noundef nonnull align 8 dereferenceable(34) %3) #25
  ret void
}